; Function Attrs: mustprogress uwtable
define dso_local void @_ZN14LinkCellsGraph14loopsMessageCbEP13V3GraphVertex(ptr nocapture nonnull readnone align 8 %0, ptr noundef %1) unnamed_addr #3 align 2 personality ptr @__gxx_personality_v0 {
  %3 = alloca %"class.std::__cxx11::basic_string", align 8
  %4 = alloca %"class.std::__cxx11::basic_string", align 8
  %5 = alloca %"class.std::__cxx11::basic_string", align 8
  %6 = load ptr, ptr %1, align 8
  %7 = load ptr, ptr %6, align 8
  %8 = tail call noundef zeroext i1 %7(ptr noundef nonnull align 8 dereferenceable(80) %1, i64 noundef ptrtoint (ptr @_ZZN15LinkCellsVertex11rttiClassIdEvE15aStaticVariable to i64))
  br i1 %8, label %9, label %39

9:                                                ; preds = %2
  %10 = getelementptr inbounds i8, ptr %1, i64 80
  %11 = load ptr, ptr %10, align 8
  %12 = tail call noundef nonnull align 8 dereferenceable(112) ptr @_ZN7V3Error11v3errorPrepB5cxx11E11V3ErrorCodeb(i8 19, i1 noundef zeroext true)
  %13 = tail call noundef nonnull align 8 dereferenceable(112) ptr @_ZN7V3Error10v3errorStrB5cxx11Ev()
  %14 = tail call noundef nonnull align 8 dereferenceable(8) ptr @_ZStlsISt11char_traitsIcEERSt13basic_ostreamIcT_ES5_PKc(ptr noundef nonnull align 8 dereferenceable(8) %13, ptr noundef nonnull @.str)
  %15 = load ptr, ptr %10, align 8
  call void @llvm.lifetime.start.p0(i64 32, ptr nonnull %3)
  %16 = load ptr, ptr %15, align 8, !noalias !5
  %17 = getelementptr inbounds i8, ptr %16, i64 56
  %18 = load ptr, ptr %17, align 8, !noalias !5
  call void %18(ptr dead_on_unwind nonnull writable sret(%"class.std::__cxx11::basic_string") align 8 %3, ptr noundef nonnull align 8 dereferenceable(152) %15), !noalias !5
  invoke void @_ZN7AstNode11prettyNameQERKNSt7__cxx1112basic_stringIcSt11char_traitsIcESaIcEEE(ptr dead_on_unwind nonnull writable sret(%"class.std::__cxx11::basic_string") align 8 %4, ptr noundef nonnull align 8 dereferenceable(32) %3)
          to label %_ZNK7AstNode11prettyNameQB5cxx11Ev.exit unwind label %19

common.resume:                                    ; preds = %35, %37, %19
  %.sink = phi ptr [ %3, %19 ], [ %4, %37 ], [ %4, %35 ]
  %common.resume.op = phi { ptr, i32 } [ %20, %19 ], [ %38, %37 ], [ %36, %35 ]
  call void @_ZNSt7__cxx1112basic_stringIcSt11char_traitsIcESaIcEED1Ev(ptr noundef nonnull align 8 dereferenceable(32) %.sink) #21
  resume { ptr, i32 } %common.resume.op

19:                                               ; preds = %9
  %20 = landingpad { ptr, i32 }
          cleanup
  br label %common.resume

_ZNK7AstNode11prettyNameQB5cxx11Ev.exit:          ; preds = %9
  call void @_ZNSt7__cxx1112basic_stringIcSt11char_traitsIcESaIcEED1Ev(ptr noundef nonnull align 8 dereferenceable(32) %3) #21
  call void @llvm.lifetime.end.p0(i64 32, ptr nonnull %3)
  %21 = invoke noundef nonnull align 8 dereferenceable(8) ptr @_ZStlsIcSt11char_traitsIcESaIcEERSt13basic_ostreamIT_T0_ES7_RKNSt7__cxx1112basic_stringIS4_S5_T1_EE(ptr noundef nonnull align 8 dereferenceable(8) %14, ptr noundef nonnull align 8 dereferenceable(32) %4)
          to label %22 unwind label %35

22:                                               ; preds = %_ZNK7AstNode11prettyNameQB5cxx11Ev.exit
  %23 = invoke noundef nonnull align 8 dereferenceable(8) ptr @_ZStlsISt11char_traitsIcEERSt13basic_ostreamIcT_ES5_c(ptr noundef nonnull align 8 dereferenceable(8) %21, i8 noundef signext 10)
          to label %24 unwind label %35

24:                                               ; preds = %22
  %25 = load ptr, ptr %10, align 8
  %26 = getelementptr inbounds i8, ptr %25, i64 88
  %27 = load ptr, ptr %26, align 8, !noalias !8
  invoke void @_ZNK8FileLine8warnMoreB5cxx11Ev(ptr dead_on_unwind nonnull writable sret(%"class.std::__cxx11::basic_string") align 8 %5, ptr noundef nonnull align 8 dereferenceable(40) %27)
          to label %_ZNK7AstNode8warnMoreB5cxx11Ev.exit unwind label %35

_ZNK7AstNode8warnMoreB5cxx11Ev.exit:              ; preds = %24
  %28 = invoke noundef nonnull align 8 dereferenceable(8) ptr @_ZStlsIcSt11char_traitsIcESaIcEERSt13basic_ostreamIT_T0_ES7_RKNSt7__cxx1112basic_stringIS4_S5_T1_EE(ptr noundef nonnull align 8 dereferenceable(8) %23, ptr noundef nonnull align 8 dereferenceable(32) %5)
          to label %29 unwind label %37

29:                                               ; preds = %_ZNK7AstNode8warnMoreB5cxx11Ev.exit
  %30 = invoke noundef nonnull align 8 dereferenceable(8) ptr @_ZStlsISt11char_traitsIcEERSt13basic_ostreamIcT_ES5_PKc(ptr noundef nonnull align 8 dereferenceable(8) %28, ptr noundef nonnull @.str.1)
          to label %31 unwind label %37

31:                                               ; preds = %29
  invoke void @_ZNK7AstNode10v3errorEndERNSt7__cxx1119basic_ostringstreamIcSt11char_traitsIcESaIcEEE(ptr noundef nonnull align 8 dereferenceable(152) %11, ptr noundef nonnull align 8 dereferenceable(112) %30)
          to label %32 unwind label %37

32:                                               ; preds = %31
  call void @_ZNSt7__cxx1112basic_stringIcSt11char_traitsIcESaIcEED1Ev(ptr noundef nonnull align 8 dereferenceable(32) %5) #21
  call void @_ZNSt7__cxx1112basic_stringIcSt11char_traitsIcESaIcEED1Ev(ptr noundef nonnull align 8 dereferenceable(32) %4) #21
  %33 = call noundef i32 @_ZN7V3Error10errorCountEv()
  %.not.i = icmp eq i32 %33, 0
  br i1 %.not.i, label %_ZN7V3Error13abortIfErrorsEv.exit, label %34

34:                                               ; preds = %32
  call void @_ZN7V3Error15abortIfWarningsEv()
  br label %_ZN7V3Error13abortIfErrorsEv.exit

_ZN7V3Error13abortIfErrorsEv.exit:                ; preds = %32, %34
  ret void

35:                                               ; preds = %24, %22, %_ZNK7AstNode11prettyNameQB5cxx11Ev.exit
  %36 = landingpad { ptr, i32 }
          cleanup
  br label %common.resume

37:                                               ; preds = %31, %29, %_ZNK7AstNode8warnMoreB5cxx11Ev.exit
  %38 = landingpad { ptr, i32 }
          cleanup
  call void @_ZNSt7__cxx1112basic_stringIcSt11char_traitsIcESaIcEED1Ev(ptr noundef nonnull align 8 dereferenceable(32) %5) #21
  br label %common.resume

39:                                               ; preds = %2
  %40 = tail call noundef nonnull align 8 dereferenceable(112) ptr @_ZN7V3Error19v3errorPrepFileLineB5cxx11E11V3ErrorCodePKcib(i8 4, ptr noundef nonnull @.str.2, i32 noundef 87, i1 noundef zeroext true)
  %41 = tail call noundef nonnull align 8 dereferenceable(112) ptr @_ZN7V3Error10v3errorStrB5cxx11Ev()
  %42 = tail call noundef nonnull align 8 dereferenceable(8) ptr @_ZStlsISt11char_traitsIcEERSt13basic_ostreamIcT_ES5_PKc(ptr noundef nonnull align 8 dereferenceable(8) %41, ptr noundef nonnull @.str.3)
  tail call void @_Z15v3errorEndFatalRNSt7__cxx1119basic_ostringstreamIcSt11char_traitsIcESaIcEEE(ptr noundef nonnull align 8 dereferenceable(112) %42) #22
  unreachable
}